SF:/Users/alexis.kinsella/Workspace/Projects/Perso/Knsl/yt-transcript-rs/src/api.rs
FN:343,_RNvMNtCsdpmhmyVGMVK_16yt_transcript_rs3apiNtB2_20YouTubeTranscriptApi16list_transcripts
FN:128,_RNvMNtCsdpmhmyVGMVK_16yt_transcript_rs3apiNtB2_20YouTubeTranscriptApi3new
FN:277,_RNCNvMNtCsdpmhmyVGMVK_16yt_transcript_rs3apiNtB4_20YouTubeTranscriptApi16fetch_transcript0B6_
FN:423,_RNCNvMNtCsdpmhmyVGMVK_16yt_transcript_rs3apiNtB4_20YouTubeTranscriptApi19fetch_video_details0B6_
FN:272,_RNvMNtCsdpmhmyVGMVK_16yt_transcript_rs3apiNtB2_20YouTubeTranscriptApi16fetch_transcript
FN:420,_RNvMNtCsdpmhmyVGMVK_16yt_transcript_rs3apiNtB2_20YouTubeTranscriptApi19fetch_video_details
FN:346,_RNCNvMNtCsdpmhmyVGMVK_16yt_transcript_rs3apiNtB4_20YouTubeTranscriptApi16list_transcripts0B6_
FN:159,_RNCNvMNtCsdpmhmyVGMVK_16yt_transcript_rs3apiNtB4_20YouTubeTranscriptApi3new0B6_
FNDA:2,_RNvMNtCsdpmhmyVGMVK_16yt_transcript_rs3apiNtB2_20YouTubeTranscriptApi16list_transcripts
FNDA:2,_RNvMNtCsdpmhmyVGMVK_16yt_transcript_rs3apiNtB2_20YouTubeTranscriptApi3new
FNDA:0,_RNCNvMNtCsdpmhmyVGMVK_16yt_transcript_rs3apiNtB4_20YouTubeTranscriptApi16fetch_transcript0B6_
FNDA:0,_RNCNvMNtCsdpmhmyVGMVK_16yt_transcript_rs3apiNtB4_20YouTubeTranscriptApi19fetch_video_details0B6_
FNDA:0,_RNvMNtCsdpmhmyVGMVK_16yt_transcript_rs3apiNtB2_20YouTubeTranscriptApi16fetch_transcript
FNDA:0,_RNvMNtCsdpmhmyVGMVK_16yt_transcript_rs3apiNtB2_20YouTubeTranscriptApi19fetch_video_details
FNDA:2,_RNCNvMNtCsdpmhmyVGMVK_16yt_transcript_rs3apiNtB4_20YouTubeTranscriptApi16list_transcripts0B6_
FNDA:0,_RNCNvMNtCsdpmhmyVGMVK_16yt_transcript_rs3apiNtB4_20YouTubeTranscriptApi3new0B6_
FNF:8
FNH:3
DA:128,2
DA:129,2
DA:130,2
DA:131,2
DA:132,2
DA:133,2
DA:134,2
DA:136,0
DA:137,0
DA:138,0
DA:139,0
DA:140,0
DA:141,0
DA:142,0
DA:143,0
DA:144,0
DA:145,0
DA:148,0
DA:149,0
DA:150,0
DA:151,0
DA:152,0
DA:155,0
DA:157,0
DA:158,0
DA:159,0
DA:160,0
DA:161,0
DA:162,0
DA:163,0
DA:164,0
DA:165,0
DA:166,0
DA:167,0
DA:168,0
DA:170,0
DA:171,0
DA:172,0
DA:173,0
DA:174,0
DA:175,0
DA:176,0
DA:177,0
DA:178,0
DA:179,0
DA:180,0
DA:181,0
DA:182,0
DA:183,0
DA:184,0
DA:185,0
DA:186,0
DA:188,0
DA:195,2
DA:196,2
DA:197,2
DA:198,2
DA:199,2
DA:200,2
DA:272,0
DA:273,0
DA:274,0
DA:275,0
DA:276,0
DA:277,0
DA:278,0
DA:279,0
DA:280,0
DA:281,0
DA:282,0
DA:283,0
DA:284,0
DA:285,0
DA:286,0
DA:287,0
DA:288,0
DA:343,2
DA:344,2
DA:345,2
DA:346,2
DA:347,2
DA:348,2
DA:349,0
DA:350,0
DA:351,0
DA:352,0
DA:353,2
DA:354,2
DA:355,2
DA:356,2
DA:357,2
DA:358,2
DA:359,2
DA:420,0
DA:421,0
DA:422,0
DA:423,0
DA:424,0
DA:425,0
DA:426,0
DA:427,0
DA:428,0
DA:429,0
DA:430,0
DA:431,0
DA:432,0
DA:433,0
DA:434,0
BRF:0
BRH:0
LF:113
LH:27
end_of_record
SF:/Users/alexis.kinsella/Workspace/Projects/Perso/Knsl/yt-transcript-rs/src/cookie_jar_loader.rs
FN:109,_RNCNvMNtCsdpmhmyVGMVK_16yt_transcript_rs17cookie_jar_loaderNtB4_15CookieJarLoader15load_cookie_jar0B6_
FN:119,_RNCNvMNtCsdpmhmyVGMVK_16yt_transcript_rs17cookie_jar_loaderNtB4_15CookieJarLoader15load_cookie_jars_0B6_
FN:192,_RNvMNtCsdpmhmyVGMVK_16yt_transcript_rs17cookie_jar_loaderNtB2_15CookieJarLoader17create_cookie_jar
FN:103,_RNvMNtCsdpmhmyVGMVK_16yt_transcript_rs17cookie_jar_loaderNtB2_15CookieJarLoader15load_cookie_jar
FNDA:0,_RNCNvMNtCsdpmhmyVGMVK_16yt_transcript_rs17cookie_jar_loaderNtB4_15CookieJarLoader15load_cookie_jar0B6_
FNDA:0,_RNCNvMNtCsdpmhmyVGMVK_16yt_transcript_rs17cookie_jar_loaderNtB4_15CookieJarLoader15load_cookie_jars_0B6_
FNDA:0,_RNvMNtCsdpmhmyVGMVK_16yt_transcript_rs17cookie_jar_loaderNtB2_15CookieJarLoader17create_cookie_jar
FNDA:0,_RNvMNtCsdpmhmyVGMVK_16yt_transcript_rs17cookie_jar_loaderNtB2_15CookieJarLoader15load_cookie_jar
FNF:4
FNH:0
DA:103,0
DA:104,0
DA:105,0
DA:106,0
DA:108,0
DA:109,0
DA:111,0
DA:112,0
DA:113,0
DA:114,0
DA:115,0
DA:116,0
DA:117,0
DA:118,0
DA:119,0
DA:120,0
DA:121,0
DA:123,0
DA:124,0
DA:125,0
DA:126,0
DA:127,0
DA:128,0
DA:129,0
DA:130,0
DA:131,0
DA:132,0
DA:133,0
DA:134,0
DA:135,0
DA:140,0
DA:141,0
DA:142,0
DA:145,0
DA:146,0
DA:147,0
DA:148,0
DA:149,0
DA:150,0
DA:192,0
DA:193,0
DA:194,0
DA:195,0
BRF:0
BRH:0
LF:45
LH:0
end_of_record
SF:/Users/alexis.kinsella/Workspace/Projects/Perso/Knsl/yt-transcript-rs/src/errors.rs
FN:168,_RNCNvMNtCsdpmhmyVGMVK_16yt_transcript_rs6errorsNtB4_26CouldNotRetrieveTranscript19build_error_message0B6_
FN:148,_RNvMNtCsdpmhmyVGMVK_16yt_transcript_rs6errorsNtB2_26CouldNotRetrieveTranscript19build_error_message
FNDA:0,_RNCNvMNtCsdpmhmyVGMVK_16yt_transcript_rs6errorsNtB4_26CouldNotRetrieveTranscript19build_error_message0B6_
FNDA:0,_RNvMNtCsdpmhmyVGMVK_16yt_transcript_rs6errorsNtB2_26CouldNotRetrieveTranscript19build_error_message
FNF:2
FNH:0
DA:148,0
DA:149,0
DA:150,0
DA:151,0
DA:152,0
DA:153,0
DA:154,0
DA:155,0
DA:156,0
DA:158,0
DA:160,0
DA:161,0
DA:162,0
DA:165,0
DA:167,0
DA:168,0
DA:169,0
DA:170,0
DA:171,0
DA:172,0
DA:173,0
DA:174,0
DA:175,0
DA:176,0
DA:178,0
DA:179,0
DA:180,0
DA:181,0
DA:182,0
DA:183,0
DA:184,0
DA:186,0
DA:187,0
DA:190,0
DA:194,0
DA:195,0
DA:196,0
DA:197,0
DA:198,0
DA:199,0
DA:200,0
DA:202,0
DA:203,0
DA:206,0
DA:211,0
DA:214,0
DA:217,0
DA:219,0
DA:220,0
DA:223,0
DA:226,0
DA:229,0
DA:233,0
DA:235,0
DA:237,0
BRF:0
BRH:0
LF:56
LH:0
end_of_record
SF:/Users/alexis.kinsella/Workspace/Projects/Perso/Knsl/yt-transcript-rs/src/fetched_transcript.rs
FN:116,_RNCNvMNtCsdpmhmyVGMVK_16yt_transcript_rs18fetched_transcriptNtB4_17FetchedTranscript11to_raw_data0B6_
FN:165,_RNCNvMNtCsdpmhmyVGMVK_16yt_transcript_rs18fetched_transcriptNtB4_17FetchedTranscript4text0B6_
FN:113,_RNvMNtCsdpmhmyVGMVK_16yt_transcript_rs18fetched_transcriptNtB2_17FetchedTranscript11to_raw_data
FN:226,_RNvMNtCsdpmhmyVGMVK_16yt_transcript_rs18fetched_transcriptNtB2_17FetchedTranscript12is_generated
FN:217,_RNvMNtCsdpmhmyVGMVK_16yt_transcript_rs18fetched_transcriptNtB2_17FetchedTranscript13language_code
FN:162,_RNvMNtCsdpmhmyVGMVK_16yt_transcript_rs18fetched_transcriptNtB2_17FetchedTranscript4text
FN:199,_RNvMNtCsdpmhmyVGMVK_16yt_transcript_rs18fetched_transcriptNtB2_17FetchedTranscript5parts
FN:252,_RNvMNtCsdpmhmyVGMVK_16yt_transcript_rs18fetched_transcriptNtB2_17FetchedTranscript8duration
FN:208,_RNvMNtCsdpmhmyVGMVK_16yt_transcript_rs18fetched_transcriptNtB2_17FetchedTranscript8language
FN:281,_RNvXs0_NtCsdpmhmyVGMVK_16yt_transcript_rs18fetched_transcriptRNtB5_17FetchedTranscriptNtNtNtNtCsfvfooZQ3Axs_4core4iter6traits7collect12IntoIterator9into_iter
FN:269,_RNvXs_NtCsdpmhmyVGMVK_16yt_transcript_rs18fetched_transcriptNtB4_17FetchedTranscriptNtNtNtNtCsfvfooZQ3Axs_4core4iter6traits7collect12IntoIterator9into_iter
FNDA:0,_RNCNvMNtCsdpmhmyVGMVK_16yt_transcript_rs18fetched_transcriptNtB4_17FetchedTranscript11to_raw_data0B6_
FNDA:0,_RNCNvMNtCsdpmhmyVGMVK_16yt_transcript_rs18fetched_transcriptNtB4_17FetchedTranscript4text0B6_
FNDA:0,_RNvMNtCsdpmhmyVGMVK_16yt_transcript_rs18fetched_transcriptNtB2_17FetchedTranscript11to_raw_data
FNDA:0,_RNvMNtCsdpmhmyVGMVK_16yt_transcript_rs18fetched_transcriptNtB2_17FetchedTranscript12is_generated
FNDA:0,_RNvMNtCsdpmhmyVGMVK_16yt_transcript_rs18fetched_transcriptNtB2_17FetchedTranscript13language_code
FNDA:0,_RNvMNtCsdpmhmyVGMVK_16yt_transcript_rs18fetched_transcriptNtB2_17FetchedTranscript4text
FNDA:0,_RNvMNtCsdpmhmyVGMVK_16yt_transcript_rs18fetched_transcriptNtB2_17FetchedTranscript5parts
FNDA:0,_RNvMNtCsdpmhmyVGMVK_16yt_transcript_rs18fetched_transcriptNtB2_17FetchedTranscript8duration
FNDA:0,_RNvMNtCsdpmhmyVGMVK_16yt_transcript_rs18fetched_transcriptNtB2_17FetchedTranscript8language
FNDA:0,_RNvXs0_NtCsdpmhmyVGMVK_16yt_transcript_rs18fetched_transcriptRNtB5_17FetchedTranscriptNtNtNtNtCsfvfooZQ3Axs_4core4iter6traits7collect12IntoIterator9into_iter
FNDA:0,_RNvXs_NtCsdpmhmyVGMVK_16yt_transcript_rs18fetched_transcriptNtB4_17FetchedTranscriptNtNtNtNtCsfvfooZQ3Axs_4core4iter6traits7collect12IntoIterator9into_iter
FNF:11
FNH:0
DA:113,0
DA:114,0
DA:115,0
DA:116,0
DA:117,0
DA:118,0
DA:119,0
DA:120,0
DA:121,0
DA:122,0
DA:123,0
DA:124,0
DA:125,0
DA:126,0
DA:127,0
DA:128,0
DA:129,0
DA:130,0
DA:131,0
DA:132,0
DA:133,0
DA:134,0
DA:135,0
DA:162,0
DA:163,0
DA:164,0
DA:165,0
DA:166,0
DA:167,0
DA:168,0
DA:199,0
DA:200,0
DA:201,0
DA:208,0
DA:209,0
DA:210,0
DA:217,0
DA:218,0
DA:219,0
DA:226,0
DA:227,0
DA:228,0
DA:252,0
DA:253,0
DA:254,0
DA:255,0
DA:256,0
DA:257,0
DA:258,0
DA:259,0
DA:269,0
DA:270,0
DA:271,0
DA:281,0
DA:282,0
DA:283,0
BRF:0
BRH:0
LF:59
LH:0
end_of_record
SF:/Users/alexis.kinsella/Workspace/Projects/Perso/Knsl/yt-transcript-rs/src/js_var_parser.rs
FN:298,_RNvMNtCsdpmhmyVGMVK_16yt_transcript_rs13js_var_parserNtB2_11JsVarParser16parse_with_regex
FN:186,_RNvMNtCsdpmhmyVGMVK_16yt_transcript_rs13js_var_parserNtB2_11JsVarParser18parse_char_by_char
FN:83,_RNvMNtCsdpmhmyVGMVK_16yt_transcript_rs13js_var_parserNtB2_11JsVarParser3new
FN:137,_RNvMNtCsdpmhmyVGMVK_16yt_transcript_rs13js_var_parserNtB2_11JsVarParser5parse
FNDA:1,_RNvMNtCsdpmhmyVGMVK_16yt_transcript_rs13js_var_parserNtB2_11JsVarParser16parse_with_regex
FNDA:3,_RNvMNtCsdpmhmyVGMVK_16yt_transcript_rs13js_var_parserNtB2_11JsVarParser18parse_char_by_char
FNDA:3,_RNvMNtCsdpmhmyVGMVK_16yt_transcript_rs13js_var_parserNtB2_11JsVarParser3new
FNDA:3,_RNvMNtCsdpmhmyVGMVK_16yt_transcript_rs13js_var_parserNtB2_11JsVarParser5parse
FNF:4
FNH:4
DA:83,3
DA:84,3
DA:85,3
DA:86,3
DA:87,3
DA:137,3
DA:138,3
DA:139,3
DA:140,3
DA:141,3
DA:144,3
DA:145,2
DA:146,1
DA:147,1
DA:148,1
DA:149,1
DA:150,3
DA:186,3
DA:187,3
DA:188,3
DA:189,3
DA:190,3
DA:191,3
DA:192,3
DA:193,3
DA:194,3
DA:195,3
DA:197,1
DA:198,1
DA:199,0
DA:200,0
DA:201,0
DA:202,0
DA:203,1
DA:204,2
DA:207,3
DA:210,3
DA:214,9
DA:215,2
DA:216,6
DA:218,1
DA:219,1
DA:220,1
DA:221,1
DA:227,2
DA:228,2
DA:229,2
DA:230,2
DA:232,320
DA:233,318
DA:234,318
DA:235,318
DA:236,318
DA:237,318
DA:238,4
DA:239,314
DA:240,4
DA:241,310
DA:242,34
DA:243,276
DA:244,153
DA:245,5
DA:246,148
DA:247,7
DA:248,141
DA:249,123
DA:253,0
DA:254,0
DA:255,0
DA:256,0
DA:262,2
DA:263,2
DA:264,2
DA:265,2
DA:266,0
DA:267,0
DA:268,0
DA:269,0
DA:271,3
DA:298,1
DA:299,1
DA:300,1
DA:301,1
DA:302,1
DA:303,1
DA:304,1
DA:305,1
DA:306,1
DA:307,1
DA:308,1
DA:309,1
DA:311,4
DA:312,4
DA:313,4
DA:314,0
DA:317,4
DA:318,1
DA:319,1
DA:320,1
DA:321,0
DA:323,0
DA:324,3
DA:328,0
DA:329,0
DA:330,0
DA:331,0
DA:332,1
BRF:0
BRH:0
LF:107
LH:88
end_of_record
SF:/Users/alexis.kinsella/Workspace/Projects/Perso/Knsl/yt-transcript-rs/src/playability_asserter.rs
FN:121,_RNCNvMNtCsdpmhmyVGMVK_16yt_transcript_rs20playability_asserterNtB4_19PlayabilityAsserter18assert_playability0B6_
FN:130,_RNCNvMNtCsdpmhmyVGMVK_16yt_transcript_rs20playability_asserterNtB4_19PlayabilityAsserter18assert_playabilitys0_0B6_
FN:131,_RNCNvMNtCsdpmhmyVGMVK_16yt_transcript_rs20playability_asserterNtB4_19PlayabilityAsserter18assert_playabilitys1_0B6_
FN:144,_RNCNvMNtCsdpmhmyVGMVK_16yt_transcript_rs20playability_asserterNtB4_19PlayabilityAsserter18assert_playabilitys2_0B6_
FN:145,_RNCNvMNtCsdpmhmyVGMVK_16yt_transcript_rs20playability_asserterNtB4_19PlayabilityAsserter18assert_playabilitys3_0B6_
FN:146,_RNCNvMNtCsdpmhmyVGMVK_16yt_transcript_rs20playability_asserterNtB4_19PlayabilityAsserter18assert_playabilitys4_0B6_
FN:147,_RNCNvMNtCsdpmhmyVGMVK_16yt_transcript_rs20playability_asserterNtB4_19PlayabilityAsserter18assert_playabilitys5_0B6_
FN:148,_RNCNvMNtCsdpmhmyVGMVK_16yt_transcript_rs20playability_asserterNtB4_19PlayabilityAsserter18assert_playabilitys6_0B6_
FN:151,_RNCNvMNtCsdpmhmyVGMVK_16yt_transcript_rs20playability_asserterNtB4_19PlayabilityAsserter18assert_playabilitys7_0B6_
FN:169,_RNCNvMNtCsdpmhmyVGMVK_16yt_transcript_rs20playability_asserterNtB4_19PlayabilityAsserter18assert_playabilitys8_0B6_
FN:170,_RNCNvMNtCsdpmhmyVGMVK_16yt_transcript_rs20playability_asserterNtB4_19PlayabilityAsserter18assert_playabilitys9_0B6_
FN:122,_RNCNvMNtCsdpmhmyVGMVK_16yt_transcript_rs20playability_asserterNtB4_19PlayabilityAsserter18assert_playabilitys_0B6_
FN:183,_RNCNvMNtCsdpmhmyVGMVK_16yt_transcript_rs20playability_asserterNtB4_19PlayabilityAsserter18assert_playabilitysa_0B6_
FN:184,_RNCNvMNtCsdpmhmyVGMVK_16yt_transcript_rs20playability_asserterNtB4_19PlayabilityAsserter18assert_playabilitysb_0B6_
FN:185,_RNCNvMNtCsdpmhmyVGMVK_16yt_transcript_rs20playability_asserterNtB4_19PlayabilityAsserter18assert_playabilitysc_0B6_
FN:186,_RNCNvMNtCsdpmhmyVGMVK_16yt_transcript_rs20playability_asserterNtB4_19PlayabilityAsserter18assert_playabilitysd_0B6_
FN:187,_RNCNvMNtCsdpmhmyVGMVK_16yt_transcript_rs20playability_asserterNtB4_19PlayabilityAsserter18assert_playabilityse_0B6_
FN:190,_RNCNvMNtCsdpmhmyVGMVK_16yt_transcript_rs20playability_asserterNtB4_19PlayabilityAsserter18assert_playabilitysf_0B6_
FN:256,_RNCNvMNtCsdpmhmyVGMVK_16yt_transcript_rs20playability_asserterNtB4_19PlayabilityAsserter18extract_subreasons0B6_
FN:258,_RNCNvMNtCsdpmhmyVGMVK_16yt_transcript_rs20playability_asserterNtB4_19PlayabilityAsserter18extract_subreasonss0_0B6_
FN:259,_RNCNvMNtCsdpmhmyVGMVK_16yt_transcript_rs20playability_asserterNtB4_19PlayabilityAsserter18extract_subreasonss1_0B6_
FN:260,_RNCNvMNtCsdpmhmyVGMVK_16yt_transcript_rs20playability_asserterNtB4_19PlayabilityAsserter18extract_subreasonss2_0B6_
FN:263,_RNCNvMNtCsdpmhmyVGMVK_16yt_transcript_rs20playability_asserterNtB4_19PlayabilityAsserter18extract_subreasonss3_0B6_
FN:257,_RNCNvMNtCsdpmhmyVGMVK_16yt_transcript_rs20playability_asserterNtB4_19PlayabilityAsserter18extract_subreasonss_0B6_
FN:115,_RNvMNtCsdpmhmyVGMVK_16yt_transcript_rs20playability_asserterNtB2_19PlayabilityAsserter18assert_playability
FN:251,_RNvMNtCsdpmhmyVGMVK_16yt_transcript_rs20playability_asserterNtB2_19PlayabilityAsserter18extract_subreasons
FNDA:0,_RNCNvMNtCsdpmhmyVGMVK_16yt_transcript_rs20playability_asserterNtB4_19PlayabilityAsserter18assert_playability0B6_
FNDA:0,_RNCNvMNtCsdpmhmyVGMVK_16yt_transcript_rs20playability_asserterNtB4_19PlayabilityAsserter18assert_playabilitys0_0B6_
FNDA:0,_RNCNvMNtCsdpmhmyVGMVK_16yt_transcript_rs20playability_asserterNtB4_19PlayabilityAsserter18assert_playabilitys1_0B6_
FNDA:0,_RNCNvMNtCsdpmhmyVGMVK_16yt_transcript_rs20playability_asserterNtB4_19PlayabilityAsserter18assert_playabilitys2_0B6_
FNDA:0,_RNCNvMNtCsdpmhmyVGMVK_16yt_transcript_rs20playability_asserterNtB4_19PlayabilityAsserter18assert_playabilitys3_0B6_
FNDA:0,_RNCNvMNtCsdpmhmyVGMVK_16yt_transcript_rs20playability_asserterNtB4_19PlayabilityAsserter18assert_playabilitys4_0B6_
FNDA:0,_RNCNvMNtCsdpmhmyVGMVK_16yt_transcript_rs20playability_asserterNtB4_19PlayabilityAsserter18assert_playabilitys5_0B6_
FNDA:0,_RNCNvMNtCsdpmhmyVGMVK_16yt_transcript_rs20playability_asserterNtB4_19PlayabilityAsserter18assert_playabilitys6_0B6_
FNDA:0,_RNCNvMNtCsdpmhmyVGMVK_16yt_transcript_rs20playability_asserterNtB4_19PlayabilityAsserter18assert_playabilitys7_0B6_
FNDA:0,_RNCNvMNtCsdpmhmyVGMVK_16yt_transcript_rs20playability_asserterNtB4_19PlayabilityAsserter18assert_playabilitys8_0B6_
FNDA:0,_RNCNvMNtCsdpmhmyVGMVK_16yt_transcript_rs20playability_asserterNtB4_19PlayabilityAsserter18assert_playabilitys9_0B6_
FNDA:0,_RNCNvMNtCsdpmhmyVGMVK_16yt_transcript_rs20playability_asserterNtB4_19PlayabilityAsserter18assert_playabilitys_0B6_
FNDA:0,_RNCNvMNtCsdpmhmyVGMVK_16yt_transcript_rs20playability_asserterNtB4_19PlayabilityAsserter18assert_playabilitysa_0B6_
FNDA:0,_RNCNvMNtCsdpmhmyVGMVK_16yt_transcript_rs20playability_asserterNtB4_19PlayabilityAsserter18assert_playabilitysb_0B6_
FNDA:0,_RNCNvMNtCsdpmhmyVGMVK_16yt_transcript_rs20playability_asserterNtB4_19PlayabilityAsserter18assert_playabilitysc_0B6_
FNDA:0,_RNCNvMNtCsdpmhmyVGMVK_16yt_transcript_rs20playability_asserterNtB4_19PlayabilityAsserter18assert_playabilitysd_0B6_
FNDA:0,_RNCNvMNtCsdpmhmyVGMVK_16yt_transcript_rs20playability_asserterNtB4_19PlayabilityAsserter18assert_playabilityse_0B6_
FNDA:0,_RNCNvMNtCsdpmhmyVGMVK_16yt_transcript_rs20playability_asserterNtB4_19PlayabilityAsserter18assert_playabilitysf_0B6_
FNDA:0,_RNCNvMNtCsdpmhmyVGMVK_16yt_transcript_rs20playability_asserterNtB4_19PlayabilityAsserter18extract_subreasons0B6_
FNDA:0,_RNCNvMNtCsdpmhmyVGMVK_16yt_transcript_rs20playability_asserterNtB4_19PlayabilityAsserter18extract_subreasonss0_0B6_
FNDA:0,_RNCNvMNtCsdpmhmyVGMVK_16yt_transcript_rs20playability_asserterNtB4_19PlayabilityAsserter18extract_subreasonss1_0B6_
FNDA:0,_RNCNvMNtCsdpmhmyVGMVK_16yt_transcript_rs20playability_asserterNtB4_19PlayabilityAsserter18extract_subreasonss2_0B6_
FNDA:0,_RNCNvMNtCsdpmhmyVGMVK_16yt_transcript_rs20playability_asserterNtB4_19PlayabilityAsserter18extract_subreasonss3_0B6_
FNDA:0,_RNCNvMNtCsdpmhmyVGMVK_16yt_transcript_rs20playability_asserterNtB4_19PlayabilityAsserter18extract_subreasonss_0B6_
FNDA:0,_RNvMNtCsdpmhmyVGMVK_16yt_transcript_rs20playability_asserterNtB2_19PlayabilityAsserter18assert_playability
FNDA:0,_RNvMNtCsdpmhmyVGMVK_16yt_transcript_rs20playability_asserterNtB2_19PlayabilityAsserter18extract_subreasons
FNF:26
FNH:0
DA:115,0
DA:116,0
DA:117,0
DA:118,0
DA:119,0
DA:120,0
DA:121,0
DA:122,0
DA:123,0
DA:124,0
DA:125,0
DA:126,0
DA:127,0
DA:128,0
DA:129,0
DA:130,0
DA:131,0
DA:132,0
DA:133,0
DA:134,0
DA:135,0
DA:136,0
DA:137,0
DA:138,0
DA:140,0
DA:142,0
DA:143,0
DA:144,0
DA:145,0
DA:146,0
DA:147,0
DA:148,0
DA:150,0
DA:151,0
DA:152,0
DA:153,0
DA:155,0
DA:157,0
DA:158,0
DA:159,0
DA:160,0
DA:161,0
DA:162,0
DA:163,0
DA:166,0
DA:167,0
DA:168,0
DA:169,0
DA:170,0
DA:171,0
DA:172,0
DA:173,0
DA:174,0
DA:175,0
DA:176,0
DA:177,0
DA:179,0
DA:181,0
DA:182,0
DA:183,0
DA:184,0
DA:185,0
DA:186,0
DA:187,0
DA:189,0
DA:190,0
DA:191,0
DA:192,0
DA:194,0
DA:196,0
DA:197,0
DA:198,0
DA:199,0
DA:200,0
DA:201,0
DA:202,0
DA:206,0
DA:251,0
DA:252,0
DA:254,0
DA:255,0
DA:256,0
DA:257,0
DA:258,0
DA:259,0
DA:260,0
DA:262,0
DA:263,0
DA:264,0
DA:265,0
DA:267,0
DA:269,0
DA:270,0
BRF:0
BRH:0
LF:117
LH:0
end_of_record
SF:/Users/alexis.kinsella/Workspace/Projects/Perso/Knsl/yt-transcript-rs/src/proxies.rs
FN:373,_RNCNvMs0_NtCsdpmhmyVGMVK_16yt_transcript_rs7proxiesNtB7_19WebshareProxyConfig3new0B9_
FN:120,_RNvYNtNtCsdpmhmyVGMVK_16yt_transcript_rs7proxies18GenericProxyConfigNtB4_11ProxyConfig20retries_when_blockedB6_
FN:104,_RNvYNtNtCsdpmhmyVGMVK_16yt_transcript_rs7proxies18GenericProxyConfigNtB4_11ProxyConfig33prevent_keeping_connections_aliveB6_
FN:211,_RNvMNtCsdpmhmyVGMVK_16yt_transcript_rs7proxiesNtB2_18GenericProxyConfig3new
FN:363,_RNvMs0_NtCsdpmhmyVGMVK_16yt_transcript_rs7proxiesNtB5_19WebshareProxyConfig3new
FN:405,_RNvMs0_NtCsdpmhmyVGMVK_16yt_transcript_rs7proxiesNtB5_19WebshareProxyConfig3url
FN:421,_RNvXs1_NtCsdpmhmyVGMVK_16yt_transcript_rs7proxiesNtB5_19WebshareProxyConfigNtB5_11ProxyConfig16to_requests_dict
FN:451,_RNvXs1_NtCsdpmhmyVGMVK_16yt_transcript_rs7proxiesNtB5_19WebshareProxyConfigNtB5_11ProxyConfig20retries_when_blocked
FN:439,_RNvXs1_NtCsdpmhmyVGMVK_16yt_transcript_rs7proxiesNtB5_19WebshareProxyConfigNtB5_11ProxyConfig33prevent_keeping_connections_alive
FN:237,_RNvXs_NtCsdpmhmyVGMVK_16yt_transcript_rs7proxiesNtB4_18GenericProxyConfigNtB4_11ProxyConfig16to_requests_dict
FN:455,_RNvXs1_NtCsdpmhmyVGMVK_16yt_transcript_rs7proxiesNtB5_19WebshareProxyConfigNtB5_11ProxyConfig6as_any
FN:256,_RNvXs_NtCsdpmhmyVGMVK_16yt_transcript_rs7proxiesNtB4_18GenericProxyConfigNtB4_11ProxyConfig6as_any
FNDA:1,_RNCNvMs0_NtCsdpmhmyVGMVK_16yt_transcript_rs7proxiesNtB7_19WebshareProxyConfig3new0B9_
FNDA:1,_RNvYNtNtCsdpmhmyVGMVK_16yt_transcript_rs7proxies18GenericProxyConfigNtB4_11ProxyConfig20retries_when_blockedB6_
FNDA:1,_RNvYNtNtCsdpmhmyVGMVK_16yt_transcript_rs7proxies18GenericProxyConfigNtB4_11ProxyConfig33prevent_keeping_connections_aliveB6_
FNDA:4,_RNvMNtCsdpmhmyVGMVK_16yt_transcript_rs7proxiesNtB2_18GenericProxyConfig3new
FNDA:2,_RNvMs0_NtCsdpmhmyVGMVK_16yt_transcript_rs7proxiesNtB5_19WebshareProxyConfig3new
FNDA:4,_RNvMs0_NtCsdpmhmyVGMVK_16yt_transcript_rs7proxiesNtB5_19WebshareProxyConfig3url
FNDA:2,_RNvXs1_NtCsdpmhmyVGMVK_16yt_transcript_rs7proxiesNtB5_19WebshareProxyConfigNtB5_11ProxyConfig16to_requests_dict
FNDA:2,_RNvXs1_NtCsdpmhmyVGMVK_16yt_transcript_rs7proxiesNtB5_19WebshareProxyConfigNtB5_11ProxyConfig20retries_when_blocked
FNDA:1,_RNvXs1_NtCsdpmhmyVGMVK_16yt_transcript_rs7proxiesNtB5_19WebshareProxyConfigNtB5_11ProxyConfig33prevent_keeping_connections_alive
FNDA:3,_RNvXs_NtCsdpmhmyVGMVK_16yt_transcript_rs7proxiesNtB4_18GenericProxyConfigNtB4_11ProxyConfig16to_requests_dict
FNDA:0,_RNvXs1_NtCsdpmhmyVGMVK_16yt_transcript_rs7proxiesNtB5_19WebshareProxyConfigNtB5_11ProxyConfig6as_any
FNDA:0,_RNvXs_NtCsdpmhmyVGMVK_16yt_transcript_rs7proxiesNtB4_18GenericProxyConfigNtB4_11ProxyConfig6as_any
FNF:12
FNH:10
DA:104,1
DA:105,1
DA:106,1
DA:120,1
DA:121,1
DA:122,1
DA:211,4
DA:212,4
DA:213,4
DA:214,4
DA:215,4
DA:216,1
DA:217,1
DA:218,1
DA:219,1
DA:220,3
DA:221,3
DA:222,3
DA:223,3
DA:224,3
DA:225,3
DA:226,4
DA:237,3
DA:238,3
DA:240,3
DA:241,2
DA:242,1
DA:245,3
DA:246,2
DA:247,1
DA:250,3
DA:251,3
DA:252,3
DA:253,3
DA:254,3
DA:256,0
DA:257,0
DA:258,0
DA:363,2
DA:364,2
DA:365,2
DA:366,2
DA:367,2
DA:368,2
DA:369,2
DA:370,2
DA:371,2
DA:372,2
DA:373,2
DA:374,2
DA:375,2
DA:376,2
DA:377,2
DA:405,4
DA:406,4
DA:407,4
DA:408,4
DA:409,4
DA:410,4
DA:421,2
DA:422,2
DA:423,2
DA:424,2
DA:425,2
DA:426,2
DA:427,2
DA:428,2
DA:429,2
DA:439,1
DA:440,1
DA:441,1
DA:451,2
DA:452,2
DA:453,2
DA:455,0
DA:456,0
DA:457,0
BRF:0
BRH:0
LF:78
LH:72
end_of_record
SF:/Users/alexis.kinsella/Workspace/Projects/Perso/Knsl/yt-transcript-rs/src/transcript.rs
FN:205,_RNCNCNvMNtCsdpmhmyVGMVK_16yt_transcript_rs10transcriptNtB6_10Transcript5fetch00B8_
FN:233,_RNCNCNvMNtCsdpmhmyVGMVK_16yt_transcript_rs10transcriptNtB6_10Transcript5fetch0s0_0B8_
FN:224,_RNCNCNvMNtCsdpmhmyVGMVK_16yt_transcript_rs10transcriptNtB6_10Transcript5fetch0s_0B8_
FN:199,_RNCNvMNtCsdpmhmyVGMVK_16yt_transcript_rs10transcriptNtB4_10Transcript5fetch0B6_
FN:385,_RNvMNtCsdpmhmyVGMVK_16yt_transcript_rs10transcriptNtB2_10Transcript12is_generated
FN:376,_RNvMNtCsdpmhmyVGMVK_16yt_transcript_rs10transcriptNtB2_10Transcript13language_code
FN:196,_RNvMNtCsdpmhmyVGMVK_16yt_transcript_rs10transcriptNtB2_10Transcript5fetch
FN:367,_RNvMNtCsdpmhmyVGMVK_16yt_transcript_rs10transcriptNtB2_10Transcript8language
FN:329,_RNvMNtCsdpmhmyVGMVK_16yt_transcript_rs10transcriptNtB2_10Transcript9translate
FN:135,_RNCNvMNtCsdpmhmyVGMVK_16yt_transcript_rs10transcriptNtB4_10Transcript3new0B6_
FN:278,_RNvMNtCsdpmhmyVGMVK_16yt_transcript_rs10transcriptNtB2_10Transcript15is_translatable
FN:124,_RNvMNtCsdpmhmyVGMVK_16yt_transcript_rs10transcriptNtB2_10Transcript3new
FN:391,_RNvXs_NtCsdpmhmyVGMVK_16yt_transcript_rs10transcriptNtB4_10TranscriptNtNtCsfvfooZQ3Axs_4core3fmt7Display3fmt
FNDA:0,_RNCNCNvMNtCsdpmhmyVGMVK_16yt_transcript_rs10transcriptNtB6_10Transcript5fetch00B8_
FNDA:0,_RNCNCNvMNtCsdpmhmyVGMVK_16yt_transcript_rs10transcriptNtB6_10Transcript5fetch0s0_0B8_
FNDA:0,_RNCNCNvMNtCsdpmhmyVGMVK_16yt_transcript_rs10transcriptNtB6_10Transcript5fetch0s_0B8_
FNDA:0,_RNCNvMNtCsdpmhmyVGMVK_16yt_transcript_rs10transcriptNtB4_10Transcript5fetch0B6_
FNDA:0,_RNvMNtCsdpmhmyVGMVK_16yt_transcript_rs10transcriptNtB2_10Transcript12is_generated
FNDA:0,_RNvMNtCsdpmhmyVGMVK_16yt_transcript_rs10transcriptNtB2_10Transcript13language_code
FNDA:0,_RNvMNtCsdpmhmyVGMVK_16yt_transcript_rs10transcriptNtB2_10Transcript5fetch
FNDA:0,_RNvMNtCsdpmhmyVGMVK_16yt_transcript_rs10transcriptNtB2_10Transcript8language
FNDA:0,_RNvMNtCsdpmhmyVGMVK_16yt_transcript_rs10transcriptNtB2_10Transcript9translate
FNDA:16,_RNCNvMNtCsdpmhmyVGMVK_16yt_transcript_rs10transcriptNtB4_10Transcript3new0B6_
FNDA:2,_RNvMNtCsdpmhmyVGMVK_16yt_transcript_rs10transcriptNtB2_10Transcript15is_translatable
FNDA:9,_RNvMNtCsdpmhmyVGMVK_16yt_transcript_rs10transcriptNtB2_10Transcript3new
FNDA:2,_RNvXs_NtCsdpmhmyVGMVK_16yt_transcript_rs10transcriptNtB4_10TranscriptNtNtCsfvfooZQ3Axs_4core3fmt7Display3fmt
FNF:13
FNH:4
DA:124,9
DA:125,9
DA:126,9
DA:127,9
DA:128,9
DA:129,9
DA:130,9
DA:131,9
DA:132,9
DA:133,9
DA:134,9
DA:135,16
DA:136,9
DA:137,9
DA:138,9
DA:139,9
DA:140,9
DA:141,9
DA:142,9
DA:143,9
DA:144,9
DA:145,9
DA:146,9
DA:147,9
DA:148,9
DA:196,0
DA:197,0
DA:198,0
DA:199,0
DA:200,0
DA:201,0
DA:202,0
DA:203,0
DA:204,0
DA:205,0
DA:206,0
DA:207,0
DA:208,0
DA:209,0
DA:210,0
DA:212,0
DA:213,0
DA:214,0
DA:215,0
DA:216,0
DA:217,0
DA:218,0
DA:219,0
DA:221,0
DA:222,0
DA:223,0
DA:224,0
DA:225,0
DA:226,0
DA:227,0
DA:228,0
DA:229,0
DA:231,0
DA:232,0
DA:233,0
DA:234,0
DA:235,0
DA:236,0
DA:238,0
DA:239,0
DA:240,0
DA:241,0
DA:242,0
DA:243,0
DA:244,0
DA:245,0
DA:278,2
DA:279,2
DA:280,2
DA:329,0
DA:330,0
DA:331,0
DA:332,0
DA:333,0
DA:334,0
DA:335,0
DA:336,0
DA:337,0
DA:338,0
DA:339,0
DA:340,0
DA:341,0
DA:342,0
DA:343,0
DA:344,0
DA:345,0
DA:346,0
DA:347,0
DA:348,0
DA:349,0
DA:350,0
DA:351,0
DA:352,0
DA:353,0
DA:354,0
DA:355,0
DA:356,0
DA:357,0
DA:358,0
DA:359,0
DA:360,0
DA:367,0
DA:368,0
DA:369,0
DA:376,0
DA:377,0
DA:378,0
DA:385,0
DA:386,0
DA:387,0
DA:391,2
DA:392,2
DA:393,2
DA:395,0
DA:397,2
DA:398,2
DA:399,2
DA:400,2
DA:401,2
DA:402,2
BRF:0
BRH:0
LF:133
LH:38
end_of_record
SF:/Users/alexis.kinsella/Workspace/Projects/Perso/Knsl/yt-transcript-rs/src/transcript_list.rs
FN:122,_RNCNvMNtCsdpmhmyVGMVK_16yt_transcript_rs15transcript_listNtB4_14TranscriptList5build0B6_
FN:146,_RNCNvMNtCsdpmhmyVGMVK_16yt_transcript_rs15transcript_listNtB4_14TranscriptList5builds0_0B6_
FN:149,_RNCNvMNtCsdpmhmyVGMVK_16yt_transcript_rs15transcript_listNtB4_14TranscriptList5builds1_0B6_
FN:154,_RNCNvMNtCsdpmhmyVGMVK_16yt_transcript_rs15transcript_listNtB4_14TranscriptList5builds2_0B6_
FN:161,_RNCNvMNtCsdpmhmyVGMVK_16yt_transcript_rs15transcript_listNtB4_14TranscriptList5builds3_0B6_
FN:162,_RNCNvMNtCsdpmhmyVGMVK_16yt_transcript_rs15transcript_listNtB4_14TranscriptList5builds4_0B6_
FN:170,_RNCNvMNtCsdpmhmyVGMVK_16yt_transcript_rs15transcript_listNtB4_14TranscriptList5builds5_0B6_
FN:145,_RNCNvMNtCsdpmhmyVGMVK_16yt_transcript_rs15transcript_listNtB4_14TranscriptList5builds_0B6_
FN:388,_RNvMNtCsdpmhmyVGMVK_16yt_transcript_rs15transcript_listNtB2_14TranscriptList11transcripts
FN:313,_RNvMNtCsdpmhmyVGMVK_16yt_transcript_rs15transcript_listNtB2_14TranscriptList25find_generated_transcript
FN:288,_RNvMNtCsdpmhmyVGMVK_16yt_transcript_rs15transcript_listNtB2_14TranscriptList32find_manually_created_transcript
FN:108,_RNvMNtCsdpmhmyVGMVK_16yt_transcript_rs15transcript_listNtB2_14TranscriptList5build
FN:422,_RNvXs0_NtCsdpmhmyVGMVK_16yt_transcript_rs15transcript_listNtB5_14TranscriptListNtNtNtNtCsfvfooZQ3Axs_4core4iter6traits7collect12IntoIterator9into_iter
FN:355,_RNCNvMNtCsdpmhmyVGMVK_16yt_transcript_rs15transcript_listNtB4_14TranscriptList23find_transcript_in_maps0B6_
FN:235,_RNvMNtCsdpmhmyVGMVK_16yt_transcript_rs15transcript_listNtB2_14TranscriptList15find_transcript
FN:339,_RNvMNtCsdpmhmyVGMVK_16yt_transcript_rs15transcript_listNtB2_14TranscriptList23find_transcript_in_maps
FN:74,_RNvMNtCsdpmhmyVGMVK_16yt_transcript_rs15transcript_listNtB2_14TranscriptList3new
FN:444,_RNvNvXs1_NtCsdpmhmyVGMVK_16yt_transcript_rs15transcript_listRNtB7_14TranscriptListNtNtNtNtCsfvfooZQ3Axs_4core4iter6traits7collect12IntoIterator9into_iter2id
FN:443,_RNvXs1_NtCsdpmhmyVGMVK_16yt_transcript_rs15transcript_listRNtB5_14TranscriptListNtNtNtNtCsfvfooZQ3Axs_4core4iter6traits7collect12IntoIterator9into_iter
FN:394,_RNvXs_NtCsdpmhmyVGMVK_16yt_transcript_rs15transcript_listNtB4_14TranscriptListNtNtCsfvfooZQ3Axs_4core3fmt7Display3fmt
FNDA:0,_RNCNvMNtCsdpmhmyVGMVK_16yt_transcript_rs15transcript_listNtB4_14TranscriptList5build0B6_
FNDA:0,_RNCNvMNtCsdpmhmyVGMVK_16yt_transcript_rs15transcript_listNtB4_14TranscriptList5builds0_0B6_
FNDA:0,_RNCNvMNtCsdpmhmyVGMVK_16yt_transcript_rs15transcript_listNtB4_14TranscriptList5builds1_0B6_
FNDA:0,_RNCNvMNtCsdpmhmyVGMVK_16yt_transcript_rs15transcript_listNtB4_14TranscriptList5builds2_0B6_
FNDA:0,_RNCNvMNtCsdpmhmyVGMVK_16yt_transcript_rs15transcript_listNtB4_14TranscriptList5builds3_0B6_
FNDA:0,_RNCNvMNtCsdpmhmyVGMVK_16yt_transcript_rs15transcript_listNtB4_14TranscriptList5builds4_0B6_
FNDA:0,_RNCNvMNtCsdpmhmyVGMVK_16yt_transcript_rs15transcript_listNtB4_14TranscriptList5builds5_0B6_
FNDA:0,_RNCNvMNtCsdpmhmyVGMVK_16yt_transcript_rs15transcript_listNtB4_14TranscriptList5builds_0B6_
FNDA:0,_RNvMNtCsdpmhmyVGMVK_16yt_transcript_rs15transcript_listNtB2_14TranscriptList11transcripts
FNDA:0,_RNvMNtCsdpmhmyVGMVK_16yt_transcript_rs15transcript_listNtB2_14TranscriptList25find_generated_transcript
FNDA:0,_RNvMNtCsdpmhmyVGMVK_16yt_transcript_rs15transcript_listNtB2_14TranscriptList32find_manually_created_transcript
FNDA:0,_RNvMNtCsdpmhmyVGMVK_16yt_transcript_rs15transcript_listNtB2_14TranscriptList5build
FNDA:0,_RNvXs0_NtCsdpmhmyVGMVK_16yt_transcript_rs15transcript_listNtB5_14TranscriptListNtNtNtNtCsfvfooZQ3Axs_4core4iter6traits7collect12IntoIterator9into_iter
FNDA:2,_RNCNvMNtCsdpmhmyVGMVK_16yt_transcript_rs15transcript_listNtB4_14TranscriptList23find_transcript_in_maps0B6_
FNDA:7,_RNvMNtCsdpmhmyVGMVK_16yt_transcript_rs15transcript_listNtB2_14TranscriptList15find_transcript
FNDA:7,_RNvMNtCsdpmhmyVGMVK_16yt_transcript_rs15transcript_listNtB2_14TranscriptList23find_transcript_in_maps
FNDA:7,_RNvMNtCsdpmhmyVGMVK_16yt_transcript_rs15transcript_listNtB2_14TranscriptList3new
FNDA:3,_RNvNvXs1_NtCsdpmhmyVGMVK_16yt_transcript_rs15transcript_listRNtB7_14TranscriptListNtNtNtNtCsfvfooZQ3Axs_4core4iter6traits7collect12IntoIterator9into_iter2id
FNDA:2,_RNvXs1_NtCsdpmhmyVGMVK_16yt_transcript_rs15transcript_listRNtB5_14TranscriptListNtNtNtNtCsfvfooZQ3Axs_4core4iter6traits7collect12IntoIterator9into_iter
FNDA:1,_RNvXs_NtCsdpmhmyVGMVK_16yt_transcript_rs15transcript_listNtB4_14TranscriptListNtNtCsfvfooZQ3Axs_4core3fmt7Display3fmt
FNF:20
FNH:7
DA:74,7
DA:75,7
DA:76,7
DA:77,7
DA:78,7
DA:79,7
DA:80,7
DA:81,7
DA:82,7
DA:83,7
DA:84,7
DA:85,7
DA:86,7
DA:108,0
DA:109,0
DA:110,0
DA:111,0
DA:112,0
DA:113,0
DA:114,0
DA:115,0
DA:116,0
DA:117,0
DA:120,0
DA:121,0
DA:122,0
DA:123,0
DA:124,0
DA:126,0
DA:127,0
DA:128,0
DA:129,0
DA:130,0
DA:131,0
DA:134,0
DA:135,0
DA:136,0
DA:139,0
DA:140,0
DA:142,0
DA:143,0
DA:144,0
DA:145,0
DA:146,0
DA:147,0
DA:149,0
DA:150,0
DA:151,0
DA:154,0
DA:155,0
DA:156,0
DA:159,0
DA:160,0
DA:161,0
DA:162,0
DA:164,0
DA:165,0
DA:168,0
DA:169,0
DA:170,0
DA:171,0
DA:173,0
DA:174,0
DA:176,0
DA:179,0
DA:180,0
DA:181,0
DA:182,0
DA:183,0
DA:184,0
DA:185,0
DA:186,0
DA:187,0
DA:188,0
DA:189,0
DA:190,0
DA:191,0
DA:192,0
DA:193,0
DA:196,0
DA:197,0
DA:198,0
DA:199,0
DA:200,0
DA:201,0
DA:202,0
DA:235,7
DA:236,7
DA:237,7
DA:238,7
DA:239,7
DA:240,7
DA:241,7
DA:242,7
DA:243,7
DA:244,7
DA:245,7
DA:246,7
DA:288,0
DA:289,0
DA:290,0
DA:291,0
DA:292,0
DA:293,0
DA:313,0
DA:314,0
DA:315,0
DA:316,0
DA:317,0
DA:318,0
DA:339,7
DA:340,7
DA:341,7
DA:342,7
DA:343,7
DA:344,11
DA:345,17
DA:346,13
DA:347,5
DA:348,8
DA:352,2
DA:353,2
DA:354,2
DA:355,2
DA:356,2
DA:357,2
DA:358,2
DA:359,7
DA:388,0
DA:389,0
DA:390,0
DA:394,1
DA:395,1
DA:398,1
DA:399,1
DA:400,1
DA:403,1
DA:404,0
DA:405,0
DA:408,1
DA:409,0
DA:411,1
DA:414,1
DA:415,1
DA:422,0
DA:423,0
DA:424,0
DA:425,0
DA:426,0
DA:427,0
DA:443,2
DA:444,3
DA:445,3
DA:446,3
DA:447,2
DA:448,2
DA:449,2
DA:450,2
DA:451,2
BRF:0
BRH:0
LF:169
LH:63
end_of_record
SF:/Users/alexis.kinsella/Workspace/Projects/Perso/Knsl/yt-transcript-rs/src/transcript_parser.rs
FN:222,_RNCNvMNtCsdpmhmyVGMVK_16yt_transcript_rs17transcript_parserNtB4_16TranscriptParser23process_with_formatting0B6_
FN:235,_RNCNvMNtCsdpmhmyVGMVK_16yt_transcript_rs17transcript_parserNtB4_16TranscriptParser23process_with_formattings_0B6_
FN:149,_RNCNvMNtCsdpmhmyVGMVK_16yt_transcript_rs17transcript_parserNtB4_16TranscriptParser5parse0B6_
FN:160,_RNCNvMNtCsdpmhmyVGMVK_16yt_transcript_rs17transcript_parserNtB4_16TranscriptParser5parses0_0B6_
FN:154,_RNCNvMNtCsdpmhmyVGMVK_16yt_transcript_rs17transcript_parserNtB4_16TranscriptParser5parses_0B6_
FN:215,_RNvMNtCsdpmhmyVGMVK_16yt_transcript_rs17transcript_parserNtB2_16TranscriptParser23process_with_formatting
FN:91,_RNvMNtCsdpmhmyVGMVK_16yt_transcript_rs17transcript_parserNtB2_16TranscriptParser3new
FN:139,_RNvMNtCsdpmhmyVGMVK_16yt_transcript_rs17transcript_parserNtB2_16TranscriptParser5parse
FNDA:0,_RNCNvMNtCsdpmhmyVGMVK_16yt_transcript_rs17transcript_parserNtB4_16TranscriptParser23process_with_formatting0B6_
FNDA:0,_RNCNvMNtCsdpmhmyVGMVK_16yt_transcript_rs17transcript_parserNtB4_16TranscriptParser23process_with_formattings_0B6_
FNDA:0,_RNCNvMNtCsdpmhmyVGMVK_16yt_transcript_rs17transcript_parserNtB4_16TranscriptParser5parse0B6_
FNDA:0,_RNCNvMNtCsdpmhmyVGMVK_16yt_transcript_rs17transcript_parserNtB4_16TranscriptParser5parses0_0B6_
FNDA:0,_RNCNvMNtCsdpmhmyVGMVK_16yt_transcript_rs17transcript_parserNtB4_16TranscriptParser5parses_0B6_
FNDA:0,_RNvMNtCsdpmhmyVGMVK_16yt_transcript_rs17transcript_parserNtB2_16TranscriptParser23process_with_formatting
FNDA:0,_RNvMNtCsdpmhmyVGMVK_16yt_transcript_rs17transcript_parserNtB2_16TranscriptParser3new
FNDA:0,_RNvMNtCsdpmhmyVGMVK_16yt_transcript_rs17transcript_parserNtB2_16TranscriptParser5parse
FNF:8
FNH:0
DA:91,0
DA:92,0
DA:93,0
DA:94,0
DA:95,0
DA:96,0
DA:97,0
DA:98,0
DA:99,0
DA:139,0
DA:140,0
DA:143,0
DA:144,0
DA:147,0
DA:148,0
DA:149,0
DA:152,0
DA:153,0
DA:154,0
DA:155,0
DA:156,0
DA:157,0
DA:158,0
DA:159,0
DA:160,0
DA:161,0
DA:164,0
DA:165,0
DA:167,0
DA:171,0
DA:173,0
DA:176,0
DA:180,0
DA:181,0
DA:182,0
DA:183,0
DA:184,0
DA:187,0
DA:188,0
DA:215,0
DA:216,0
DA:217,0
DA:218,0
DA:219,0
DA:220,0
DA:221,0
DA:222,0
DA:223,0
DA:224,0
DA:225,0
DA:226,0
DA:227,0
DA:228,0
DA:229,0
DA:230,0
DA:231,0
DA:232,0
DA:233,0
DA:234,0
DA:235,0
DA:236,0
DA:237,0
DA:238,0
DA:239,0
DA:240,0
DA:241,0
DA:242,0
DA:243,0
DA:244,0
DA:245,0
DA:248,0
DA:249,0
BRF:0
BRH:0
LF:79
LH:0
end_of_record
SF:/Users/alexis.kinsella/Workspace/Projects/Perso/Knsl/yt-transcript-rs/src/video_data_fetcher.rs
FN:194,_RNCNvMNtCsdpmhmyVGMVK_16yt_transcript_rs18video_data_fetcherNtB4_16VideoDataFetcher19fetch_video_details0B6_
FN:144,_RNCNvMNtCsdpmhmyVGMVK_16yt_transcript_rs18video_data_fetcherNtB4_16VideoDataFetcher20fetch_video_captions0B6_
FN:122,_RNCNvMNtCsdpmhmyVGMVK_16yt_transcript_rs18video_data_fetcherNtB4_16VideoDataFetcher21fetch_transcript_list0B6_
FN:191,_RNvMNtCsdpmhmyVGMVK_16yt_transcript_rs18video_data_fetcherNtB2_16VideoDataFetcher19fetch_video_details
FN:141,_RNvMNtCsdpmhmyVGMVK_16yt_transcript_rs18video_data_fetcherNtB2_16VideoDataFetcher20fetch_video_captions
FN:247,_RNvMNtCsdpmhmyVGMVK_16yt_transcript_rs18video_data_fetcherNtB2_16VideoDataFetcher21extract_captions_json
FN:119,_RNvMNtCsdpmhmyVGMVK_16yt_transcript_rs18video_data_fetcherNtB2_16VideoDataFetcher21fetch_transcript_list
FN:215,_RNvMNtCsdpmhmyVGMVK_16yt_transcript_rs18video_data_fetcherNtB2_16VideoDataFetcher34extract_yt_initial_player_response
FN:74,_RNvMNtCsdpmhmyVGMVK_16yt_transcript_rs18video_data_fetcherNtB2_16VideoDataFetcher3new
FNDA:0,_RNCNvMNtCsdpmhmyVGMVK_16yt_transcript_rs18video_data_fetcherNtB4_16VideoDataFetcher19fetch_video_details0B6_
FNDA:0,_RNCNvMNtCsdpmhmyVGMVK_16yt_transcript_rs18video_data_fetcherNtB4_16VideoDataFetcher20fetch_video_captions0B6_
FNDA:0,_RNCNvMNtCsdpmhmyVGMVK_16yt_transcript_rs18video_data_fetcherNtB4_16VideoDataFetcher21fetch_transcript_list0B6_
FNDA:0,_RNvMNtCsdpmhmyVGMVK_16yt_transcript_rs18video_data_fetcherNtB2_16VideoDataFetcher19fetch_video_details
FNDA:0,_RNvMNtCsdpmhmyVGMVK_16yt_transcript_rs18video_data_fetcherNtB2_16VideoDataFetcher20fetch_video_captions
FNDA:0,_RNvMNtCsdpmhmyVGMVK_16yt_transcript_rs18video_data_fetcherNtB2_16VideoDataFetcher21extract_captions_json
FNDA:0,_RNvMNtCsdpmhmyVGMVK_16yt_transcript_rs18video_data_fetcherNtB2_16VideoDataFetcher21fetch_transcript_list
FNDA:0,_RNvMNtCsdpmhmyVGMVK_16yt_transcript_rs18video_data_fetcherNtB2_16VideoDataFetcher34extract_yt_initial_player_response
FNDA:0,_RNvMNtCsdpmhmyVGMVK_16yt_transcript_rs18video_data_fetcherNtB2_16VideoDataFetcher3new
FNF:9
FNH:0
DA:74,0
DA:75,0
DA:76,0
DA:77,0
DA:78,0
DA:79,0
DA:80,0
DA:81,0
DA:119,0
DA:120,0
DA:121,0
DA:122,0
DA:123,0
DA:125,0
DA:126,0
DA:141,0
DA:142,0
DA:143,0
DA:144,0
DA:146,0
DA:149,0
DA:150,0
DA:191,0
DA:192,0
DA:193,0
DA:194,0
DA:196,0
DA:197,0
DA:200,0
DA:201,0
DA:215,0
DA:216,0
DA:217,0
DA:218,0
DA:219,0
DA:220,0
DA:221,0
DA:223,0
DA:224,0
DA:247,0
DA:248,0
DA:249,0
DA:250,0
DA:251,0
DA:252,0
DA:255,0
DA:258,0
DA:259,0
DA:260,0
DA:262,0
DA:263,0
DA:264,0
DA:265,0
DA:269,0
DA:270,0
DA:271,0
DA:272,0
DA:276,0
DA:277,0
BRF:0
BRH:0
LF:62
LH:0
end_of_record
SF:/Users/alexis.kinsella/Workspace/Projects/Perso/Knsl/yt-transcript-rs/src/video_details_extractor.rs
FN:131,_RNCNCNCNvMNtCsdpmhmyVGMVK_16yt_transcript_rs23video_details_extractorNtB8_21VideoDetailsExtractor21extract_video_detailss2_000Ba_
FN:131,_RNCNCNvMNtCsdpmhmyVGMVK_16yt_transcript_rs23video_details_extractorNtB6_21VideoDetailsExtractor21extract_video_detailss2_00B8_
FN:104,_RNCNvMNtCsdpmhmyVGMVK_16yt_transcript_rs23video_details_extractorNtB4_21VideoDetailsExtractor21extract_video_details0B6_
FN:109,_RNCNvMNtCsdpmhmyVGMVK_16yt_transcript_rs23video_details_extractorNtB4_21VideoDetailsExtractor21extract_video_detailss0_0B6_
FN:127,_RNCNvMNtCsdpmhmyVGMVK_16yt_transcript_rs23video_details_extractorNtB4_21VideoDetailsExtractor21extract_video_detailss1_0B6_
FN:128,_RNCNvMNtCsdpmhmyVGMVK_16yt_transcript_rs23video_details_extractorNtB4_21VideoDetailsExtractor21extract_video_detailss2_0B6_
FN:139,_RNCNvMNtCsdpmhmyVGMVK_16yt_transcript_rs23video_details_extractorNtB4_21VideoDetailsExtractor21extract_video_detailss3_0B6_
FN:144,_RNCNvMNtCsdpmhmyVGMVK_16yt_transcript_rs23video_details_extractorNtB4_21VideoDetailsExtractor21extract_video_detailss4_0B6_
FN:149,_RNCNvMNtCsdpmhmyVGMVK_16yt_transcript_rs23video_details_extractorNtB4_21VideoDetailsExtractor21extract_video_detailss5_0B6_
FN:150,_RNCNvMNtCsdpmhmyVGMVK_16yt_transcript_rs23video_details_extractorNtB4_21VideoDetailsExtractor21extract_video_detailss6_0B6_
FN:155,_RNCNvMNtCsdpmhmyVGMVK_16yt_transcript_rs23video_details_extractorNtB4_21VideoDetailsExtractor21extract_video_detailss7_0B6_
FN:160,_RNCNvMNtCsdpmhmyVGMVK_16yt_transcript_rs23video_details_extractorNtB4_21VideoDetailsExtractor21extract_video_detailss8_0B6_
FN:165,_RNCNvMNtCsdpmhmyVGMVK_16yt_transcript_rs23video_details_extractorNtB4_21VideoDetailsExtractor21extract_video_detailss9_0B6_
FN:105,_RNCNvMNtCsdpmhmyVGMVK_16yt_transcript_rs23video_details_extractorNtB4_21VideoDetailsExtractor21extract_video_detailss_0B6_
FN:170,_RNCNvMNtCsdpmhmyVGMVK_16yt_transcript_rs23video_details_extractorNtB4_21VideoDetailsExtractor21extract_video_detailssa_0B6_
FN:176,_RNCNvMNtCsdpmhmyVGMVK_16yt_transcript_rs23video_details_extractorNtB4_21VideoDetailsExtractor21extract_video_detailssb_0B6_
FN:95,_RNvMNtCsdpmhmyVGMVK_16yt_transcript_rs23video_details_extractorNtB2_21VideoDetailsExtractor21extract_video_details
FNDA:0,_RNCNCNCNvMNtCsdpmhmyVGMVK_16yt_transcript_rs23video_details_extractorNtB8_21VideoDetailsExtractor21extract_video_detailss2_000Ba_
FNDA:0,_RNCNCNvMNtCsdpmhmyVGMVK_16yt_transcript_rs23video_details_extractorNtB6_21VideoDetailsExtractor21extract_video_detailss2_00B8_
FNDA:0,_RNCNvMNtCsdpmhmyVGMVK_16yt_transcript_rs23video_details_extractorNtB4_21VideoDetailsExtractor21extract_video_details0B6_
FNDA:0,_RNCNvMNtCsdpmhmyVGMVK_16yt_transcript_rs23video_details_extractorNtB4_21VideoDetailsExtractor21extract_video_detailss0_0B6_
FNDA:0,_RNCNvMNtCsdpmhmyVGMVK_16yt_transcript_rs23video_details_extractorNtB4_21VideoDetailsExtractor21extract_video_detailss1_0B6_
FNDA:0,_RNCNvMNtCsdpmhmyVGMVK_16yt_transcript_rs23video_details_extractorNtB4_21VideoDetailsExtractor21extract_video_detailss2_0B6_
FNDA:0,_RNCNvMNtCsdpmhmyVGMVK_16yt_transcript_rs23video_details_extractorNtB4_21VideoDetailsExtractor21extract_video_detailss3_0B6_
FNDA:0,_RNCNvMNtCsdpmhmyVGMVK_16yt_transcript_rs23video_details_extractorNtB4_21VideoDetailsExtractor21extract_video_detailss4_0B6_
FNDA:0,_RNCNvMNtCsdpmhmyVGMVK_16yt_transcript_rs23video_details_extractorNtB4_21VideoDetailsExtractor21extract_video_detailss5_0B6_
FNDA:0,_RNCNvMNtCsdpmhmyVGMVK_16yt_transcript_rs23video_details_extractorNtB4_21VideoDetailsExtractor21extract_video_detailss6_0B6_
FNDA:0,_RNCNvMNtCsdpmhmyVGMVK_16yt_transcript_rs23video_details_extractorNtB4_21VideoDetailsExtractor21extract_video_detailss7_0B6_
FNDA:0,_RNCNvMNtCsdpmhmyVGMVK_16yt_transcript_rs23video_details_extractorNtB4_21VideoDetailsExtractor21extract_video_detailss8_0B6_
FNDA:0,_RNCNvMNtCsdpmhmyVGMVK_16yt_transcript_rs23video_details_extractorNtB4_21VideoDetailsExtractor21extract_video_detailss9_0B6_
FNDA:0,_RNCNvMNtCsdpmhmyVGMVK_16yt_transcript_rs23video_details_extractorNtB4_21VideoDetailsExtractor21extract_video_detailss_0B6_
FNDA:0,_RNCNvMNtCsdpmhmyVGMVK_16yt_transcript_rs23video_details_extractorNtB4_21VideoDetailsExtractor21extract_video_detailssa_0B6_
FNDA:0,_RNCNvMNtCsdpmhmyVGMVK_16yt_transcript_rs23video_details_extractorNtB4_21VideoDetailsExtractor21extract_video_detailssb_0B6_
FNDA:0,_RNvMNtCsdpmhmyVGMVK_16yt_transcript_rs23video_details_extractorNtB2_21VideoDetailsExtractor21extract_video_details
FNF:17
FNH:0
DA:95,0
DA:96,0
DA:97,0
DA:98,0
DA:99,0
DA:100,0
DA:102,0
DA:103,0
DA:104,0
DA:105,0
DA:107,0
DA:108,0
DA:109,0
DA:110,0
DA:111,0
DA:112,0
DA:114,0
DA:115,0
DA:116,0
DA:117,0
DA:118,0
DA:119,0
DA:120,0
DA:121,0
DA:125,0
DA:126,0
DA:127,0
DA:128,0
DA:129,0
DA:130,0
DA:131,0
DA:132,0
DA:133,0
DA:134,0
DA:135,0
DA:136,0
DA:137,0
DA:138,0
DA:139,0
DA:140,0
DA:141,0
DA:142,0
DA:143,0
DA:144,0
DA:145,0
DA:146,0
DA:147,0
DA:148,0
DA:149,0
DA:150,0
DA:151,0
DA:152,0
DA:153,0
DA:154,0
DA:155,0
DA:156,0
DA:157,0
DA:158,0
DA:159,0
DA:160,0
DA:161,0
DA:162,0
DA:163,0
DA:164,0
DA:165,0
DA:166,0
DA:167,0
DA:168,0
DA:169,0
DA:170,0
DA:171,0
DA:172,0
DA:173,0
DA:174,0
DA:175,0
DA:176,0
DA:177,0
DA:178,0
DA:180,0
DA:181,0
DA:182,0
DA:183,0
DA:185,0
BRF:0
BRH:0
LF:101
LH:0
end_of_record
SF:/Users/alexis.kinsella/Workspace/Projects/Perso/Knsl/yt-transcript-rs/src/youtube_page_fetcher.rs
FN:162,_RNCNCNvMNtCsdpmhmyVGMVK_16yt_transcript_rs20youtube_page_fetcherNtB6_18YoutubePageFetcher16fetch_video_page00B8_
FN:222,_RNCNCNvMNtCsdpmhmyVGMVK_16yt_transcript_rs20youtube_page_fetcherNtB6_18YoutubePageFetcher16fetch_video_page0s0_0B8_
FN:233,_RNCNCNvMNtCsdpmhmyVGMVK_16yt_transcript_rs20youtube_page_fetcherNtB6_18YoutubePageFetcher16fetch_video_page0s1_0B8_
FN:203,_RNCNCNvMNtCsdpmhmyVGMVK_16yt_transcript_rs20youtube_page_fetcherNtB6_18YoutubePageFetcher16fetch_video_page0s_0B8_
FN:308,_RNCNCNvMNtCsdpmhmyVGMVK_16yt_transcript_rs20youtube_page_fetcherNtB6_18YoutubePageFetcher21create_consent_cookie00B8_
FN:153,_RNCNvMNtCsdpmhmyVGMVK_16yt_transcript_rs20youtube_page_fetcherNtB4_18YoutubePageFetcher16fetch_video_page0B6_
FN:285,_RNCNvMNtCsdpmhmyVGMVK_16yt_transcript_rs20youtube_page_fetcherNtB4_18YoutubePageFetcher21create_consent_cookie0B6_
FN:150,_RNvMNtCsdpmhmyVGMVK_16yt_transcript_rs20youtube_page_fetcherNtB2_18YoutubePageFetcher16fetch_video_page
FN:281,_RNvMNtCsdpmhmyVGMVK_16yt_transcript_rs20youtube_page_fetcherNtB2_18YoutubePageFetcher21create_consent_cookie
FN:95,_RNvMNtCsdpmhmyVGMVK_16yt_transcript_rs20youtube_page_fetcherNtB2_18YoutubePageFetcher3new
FNDA:0,_RNCNCNvMNtCsdpmhmyVGMVK_16yt_transcript_rs20youtube_page_fetcherNtB6_18YoutubePageFetcher16fetch_video_page00B8_
FNDA:0,_RNCNCNvMNtCsdpmhmyVGMVK_16yt_transcript_rs20youtube_page_fetcherNtB6_18YoutubePageFetcher16fetch_video_page0s0_0B8_
FNDA:0,_RNCNCNvMNtCsdpmhmyVGMVK_16yt_transcript_rs20youtube_page_fetcherNtB6_18YoutubePageFetcher16fetch_video_page0s1_0B8_
FNDA:0,_RNCNCNvMNtCsdpmhmyVGMVK_16yt_transcript_rs20youtube_page_fetcherNtB6_18YoutubePageFetcher16fetch_video_page0s_0B8_
FNDA:0,_RNCNCNvMNtCsdpmhmyVGMVK_16yt_transcript_rs20youtube_page_fetcherNtB6_18YoutubePageFetcher21create_consent_cookie00B8_
FNDA:0,_RNCNvMNtCsdpmhmyVGMVK_16yt_transcript_rs20youtube_page_fetcherNtB4_18YoutubePageFetcher16fetch_video_page0B6_
FNDA:0,_RNCNvMNtCsdpmhmyVGMVK_16yt_transcript_rs20youtube_page_fetcherNtB4_18YoutubePageFetcher21create_consent_cookie0B6_
FNDA:0,_RNvMNtCsdpmhmyVGMVK_16yt_transcript_rs20youtube_page_fetcherNtB2_18YoutubePageFetcher16fetch_video_page
FNDA:0,_RNvMNtCsdpmhmyVGMVK_16yt_transcript_rs20youtube_page_fetcherNtB2_18YoutubePageFetcher21create_consent_cookie
FNDA:0,_RNvMNtCsdpmhmyVGMVK_16yt_transcript_rs20youtube_page_fetcherNtB2_18YoutubePageFetcher3new
FNF:10
FNH:0
DA:95,0
DA:96,0
DA:97,0
DA:98,0
DA:99,0
DA:100,0
DA:150,0
DA:151,0
DA:152,0
DA:153,0
DA:154,0
DA:156,0
DA:157,0
DA:158,0
DA:159,0
DA:160,0
DA:161,0
DA:162,0
DA:163,0
DA:164,0
DA:165,0
DA:166,0
DA:167,0
DA:168,0
DA:170,0
DA:171,0
DA:175,0
DA:176,0
DA:177,0
DA:178,0
DA:180,0
DA:184,0
DA:186,0
DA:188,0
DA:189,0
DA:191,0
DA:192,0
DA:193,0
DA:194,0
DA:195,0
DA:196,0
DA:197,0
DA:198,0
DA:200,0
DA:201,0
DA:202,0
DA:203,0
DA:204,0
DA:205,0
DA:206,0
DA:207,0
DA:208,0
DA:211,0
DA:213,0
DA:216,0
DA:217,0
DA:218,0
DA:219,0
DA:220,0
DA:221,0
DA:222,0
DA:223,0
DA:224,0
DA:225,0
DA:226,0
DA:227,0
DA:229,0
DA:230,0
DA:231,0
DA:232,0
DA:233,0
DA:234,0
DA:235,0
DA:236,0
DA:237,0
DA:238,0
DA:241,0
DA:242,0
DA:243,0
DA:244,0
DA:245,0
DA:246,0
DA:247,0
DA:248,0
DA:250,0
DA:252,0
DA:281,0
DA:282,0
DA:283,0
DA:284,0
DA:285,0
DA:286,0
DA:287,0
DA:289,0
DA:290,0
DA:292,0
DA:293,0
DA:294,0
DA:295,0
DA:296,0
DA:297,0
DA:298,0
DA:299,0
DA:300,0
DA:301,0
DA:302,0
DA:303,0
DA:304,0
DA:305,0
DA:306,0
DA:307,0
DA:308,0
DA:309,0
DA:310,0
DA:311,0
DA:313,0
DA:314,0
DA:315,0
DA:318,0
DA:319,0
DA:320,0
DA:321,0
DA:322,0
BRF:0
BRH:0
LF:135
LH:0
end_of_record